; Function Attrs: nounwind uwtable
define dso_local ptr @patch_id_iter_first(ptr noundef %0, ptr noundef %1) local_unnamed_addr #0 {
  %3 = alloca %struct.object_id, align 4
  %4 = alloca %struct.patch_id, align 8
  call void @llvm.lifetime.start.p0(i64 64, ptr nonnull %4) #6
  %5 = getelementptr i8, ptr %0, i64 48
  %.val = load ptr, ptr %5, align 8, !tbaa !4
  %.not.i = icmp eq ptr %.val, null
  br i1 %.not.i, label %15, label %patch_id_defined.exit

patch_id_defined.exit:                            ; preds = %2
  %6 = getelementptr inbounds nuw i8, ptr %.val, i64 8
  %7 = load ptr, ptr %6, align 8, !tbaa !15
  %.not2.i.not = icmp eq ptr %7, null
  br i1 %.not2.i.not, label %8, label %25

8:                                                ; preds = %patch_id_defined.exit
  %9 = getelementptr inbounds nuw i8, ptr %4, i64 8
  call void @llvm.memset.p0.i64(ptr noundef nonnull align 8 dereferenceable(64) %9, i8 0, i64 48, i1 false)
  call void @llvm.lifetime.start.p0(i64 36, ptr nonnull %3) #6
  %10 = getelementptr inbounds nuw i8, ptr %4, i64 56
  store ptr %0, ptr %10, align 8, !tbaa !36
  %11 = getelementptr inbounds nuw i8, ptr %1, i64 48
  %12 = load ptr, ptr %.val, align 8, !tbaa !18
  %13 = getelementptr inbounds nuw i8, ptr %12, i64 4
  %14 = getelementptr inbounds nuw i8, ptr %0, i64 4
  tail call void @diff_tree_oid(ptr noundef nonnull %13, ptr noundef nonnull %14, ptr noundef nonnull @.str, ptr noundef nonnull %11) #6
  br label %commit_patch_id.exit.i

15:                                               ; preds = %2
  %16 = getelementptr inbounds nuw i8, ptr %4, i64 8
  call void @llvm.memset.p0.i64(ptr noundef nonnull align 8 dereferenceable(64) %16, i8 0, i64 48, i1 false)
  call void @llvm.lifetime.start.p0(i64 36, ptr nonnull %3) #6
  %17 = getelementptr inbounds nuw i8, ptr %4, i64 56
  store ptr %0, ptr %17, align 8, !tbaa !36
  %18 = getelementptr inbounds nuw i8, ptr %1, i64 48
  %19 = getelementptr inbounds nuw i8, ptr %0, i64 4
  tail call void @diff_root_tree_oid(ptr noundef nonnull %19, ptr noundef nonnull @.str, ptr noundef nonnull %18) #6
  br label %commit_patch_id.exit.i

commit_patch_id.exit.i:                           ; preds = %15, %8
  %20 = phi ptr [ %18, %15 ], [ %11, %8 ]
  tail call void @diffcore_std(ptr noundef nonnull %20) #6
  %21 = call i32 @diff_flush_patch_id(ptr noundef nonnull %20, ptr noundef nonnull %3, i32 noundef 1) #6
  %.not.i6 = icmp eq i32 %21, 0
  br i1 %.not.i6, label %22, label %init_patch_id_entry.exit.thread

init_patch_id_entry.exit.thread:                  ; preds = %commit_patch_id.exit.i
  call void @llvm.lifetime.end.p0(i64 36, ptr nonnull %3) #6
  br label %25

22:                                               ; preds = %commit_patch_id.exit.i
  %.val.i = load i32, ptr %3, align 4
  %23 = getelementptr inbounds nuw i8, ptr %4, i64 8
  store i32 %.val.i, ptr %23, align 8, !tbaa !40
  store ptr null, ptr %4, align 8, !tbaa !41
  call void @llvm.lifetime.end.p0(i64 36, ptr nonnull %3) #6
  %24 = call ptr @hashmap_get(ptr noundef nonnull %1, ptr noundef nonnull %4, ptr noundef null) #6
  br label %25

25:                                               ; preds = %init_patch_id_entry.exit.thread, %patch_id_defined.exit, %22
  %.0 = phi ptr [ %24, %22 ], [ null, %patch_id_defined.exit ], [ null, %init_patch_id_entry.exit.thread ]
  call void @llvm.lifetime.end.p0(i64 64, ptr nonnull %4) #6
  ret ptr %.0
}